target datalayout = "e-m:e-p270:32:32-p271:32:32-p272:64:64-i64:64-i128:128-f80:128-n8:16:32:64-S128"
target triple = "x86_64-pc-linux-gnu"

%struct.AVFormatContext = type { ptr, ptr, ptr, ptr, ptr, i32, i32, ptr, i32, ptr, i32, ptr, ptr, i64, i64, i64, i32, i32, i32, i64, i64, ptr, i32, i32, ptr, i32, i32, i32, i32, ptr, i64, i32, i32, %struct.AVIOInterruptCB, i32, i32, i32, i32, i64, i32, i32, i32, i32, i32, i32, i32, i32, i32, i32, i32, i32, i64, i32, i32, i32, i32, i32, ptr, ptr, ptr, ptr, i32, ptr, ptr, ptr, ptr, i32, ptr, ptr, i64, ptr, ptr, ptr, i64 }
%struct.AVIOInterruptCB = type { ptr, ptr }
%struct.MpegTSWrite = type { ptr, %struct.MpegTSSection, %struct.MpegTSSection, %struct.MpegTSSection, ptr, ptr, i64, i64, i64, i32, i64, i32, i64, i32, i32, i64, i32, i32, i32, i32, i32, i32, i32, i32, i32, i32, i32, i32, i32, i32, i32, i64, i64, i64, i64, i64, i64, [256 x i8], i32 }
%struct.MpegTSSection = type { i32, i32, i32, ptr, ptr }

; Function Attrs: alwaysinline nounwind willreturn memory(none) uwtable
define internal i32 @av_bswap32(i32 noundef %0) #1 {
  %2 = alloca i32, align 4
  store i32 %0, ptr %2, align 4, !tbaa !59
  %3 = load i32, ptr %2, align 4, !tbaa !59
  %4 = shl i32 %3, 8
  %5 = and i32 %4, 65280
  %6 = load i32, ptr %2, align 4, !tbaa !59
  %7 = lshr i32 %6, 8
  %8 = and i32 %7, 255
  %9 = or i32 %5, %8
  %10 = shl i32 %9, 16
  %11 = load i32, ptr %2, align 4, !tbaa !59
  %12 = lshr i32 %11, 16
  %13 = shl i32 %12, 8
  %14 = and i32 %13, 65280
  %15 = load i32, ptr %2, align 4, !tbaa !59
  %16 = lshr i32 %15, 16
  %17 = lshr i32 %16, 8
  %18 = and i32 %17, 255
  %19 = or i32 %14, %18
  %20 = or i32 %10, %19
  ret i32 %20
}

; Function Attrs: nounwind uwtable
define internal i64 @get_pcr(ptr noundef %0) #0 {
  %2 = alloca ptr, align 8
  store ptr %0, ptr %2, align 8, !tbaa !42
  %3 = load ptr, ptr %2, align 8, !tbaa !42
  %4 = getelementptr inbounds nuw %struct.MpegTSWrite, ptr %3, i32 0, i32 15
  %5 = load i64, ptr %4, align 8, !tbaa !195
  %6 = add nsw i64 %5, 11
  %7 = load ptr, ptr %2, align 8, !tbaa !42
  %8 = getelementptr inbounds nuw %struct.MpegTSWrite, ptr %7, i32 0, i32 13
  %9 = load i32, ptr %8, align 8, !tbaa !142
  %10 = sext i32 %9 to i64
  %11 = call i64 @av_rescale(i64 noundef %6, i64 noundef 216000000, i64 noundef %10) #12
  %12 = load ptr, ptr %2, align 8, !tbaa !42
  %13 = getelementptr inbounds nuw %struct.MpegTSWrite, ptr %12, i32 0, i32 10
  %14 = load i64, ptr %13, align 8, !tbaa !128
  %15 = add nsw i64 %11, %14
  ret i64 %15
}

; Function Attrs: nounwind uwtable
define internal void @write_packet(ptr noundef %0, ptr noundef %1) #0 {
  %3 = alloca ptr, align 8
  %4 = alloca ptr, align 8
  %5 = alloca ptr, align 8
  %6 = alloca i64, align 8
  %7 = alloca i32, align 4
  store ptr %0, ptr %3, align 8, !tbaa !4
  store ptr %1, ptr %4, align 8, !tbaa !13
  call void @llvm.lifetime.start.p0(i64 8, ptr %5) #13
  %8 = load ptr, ptr %3, align 8, !tbaa !4
  %9 = getelementptr inbounds nuw %struct.AVFormatContext, ptr %8, i32 0, i32 3
  %10 = load ptr, ptr %9, align 8, !tbaa !41
  store ptr %10, ptr %5, align 8, !tbaa !42
  %11 = load ptr, ptr %5, align 8, !tbaa !42
  %12 = getelementptr inbounds nuw %struct.MpegTSWrite, ptr %11, i32 0, i32 22
  %13 = load i32, ptr %12, align 8, !tbaa !44
  %14 = icmp ne i32 %13, 0
  br i1 %14, label %15, label %28

15:                                               ; preds = %2
  call void @llvm.lifetime.start.p0(i64 8, ptr %6) #13
  %16 = load ptr, ptr %3, align 8, !tbaa !4
  %17 = getelementptr inbounds nuw %struct.AVFormatContext, ptr %16, i32 0, i32 3
  %18 = load ptr, ptr %17, align 8, !tbaa !41
  %19 = call i64 @get_pcr(ptr noundef %18)
  store i64 %19, ptr %6, align 8, !tbaa !160
  call void @llvm.lifetime.start.p0(i64 4, ptr %7) #13
  %20 = load i64, ptr %6, align 8, !tbaa !160
  %21 = srem i64 %20, 1073741823
  %22 = trunc i64 %21 to i32
  store i32 %22, ptr %7, align 4, !tbaa !59
  %23 = load i32, ptr %7, align 4, !tbaa !23
  %24 = call i32 @av_bswap32(i32 noundef %23) #12
  store i32 %24, ptr %7, align 4, !tbaa !59
  %25 = load ptr, ptr %3, align 8, !tbaa !4
  %26 = getelementptr inbounds nuw %struct.AVFormatContext, ptr %25, i32 0, i32 4
  %27 = load ptr, ptr %26, align 8, !tbaa !29
  call void @avio_write(ptr noundef %27, ptr noundef %7, i32 noundef 4)
  call void @llvm.lifetime.end.p0(i64 4, ptr %7) #13
  call void @llvm.lifetime.end.p0(i64 8, ptr %6) #13
  br label %28

28:                                               ; preds = %15, %2
  %29 = load ptr, ptr %3, align 8, !tbaa !4
  %30 = getelementptr inbounds nuw %struct.AVFormatContext, ptr %29, i32 0, i32 4
  %31 = load ptr, ptr %30, align 8, !tbaa !29
  %32 = load ptr, ptr %4, align 8, !tbaa !13
  call void @avio_write(ptr noundef %31, ptr noundef %32, i32 noundef 188)
  %33 = load ptr, ptr %5, align 8, !tbaa !42
  %34 = getelementptr inbounds nuw %struct.MpegTSWrite, ptr %33, i32 0, i32 15
  %35 = load i64, ptr %34, align 8, !tbaa !195
  %36 = add nsw i64 %35, 188
  store i64 %36, ptr %34, align 8, !tbaa !195
  call void @llvm.lifetime.end.p0(i64 8, ptr %5) #13
  ret void
}

; Function Attrs: nounwind uwtable
define internal void @section_write_packet(ptr noundef %0, ptr noundef %1) #0 {
  %3 = alloca ptr, align 8
  %4 = alloca ptr, align 8
  %5 = alloca ptr, align 8
  store ptr %0, ptr %3, align 8, !tbaa !223
  store ptr %1, ptr %4, align 8, !tbaa !13
  call void @llvm.lifetime.start.p0(i64 8, ptr %5) #13
  %6 = load ptr, ptr %3, align 8, !tbaa !223
  %7 = getelementptr inbounds nuw %struct.MpegTSSection, ptr %6, i32 0, i32 4
  %8 = load ptr, ptr %7, align 8, !tbaa !245
  store ptr %8, ptr %5, align 8, !tbaa !4
  %9 = load ptr, ptr %5, align 8, !tbaa !4
  %10 = load ptr, ptr %4, align 8, !tbaa !13
  call void @write_packet(ptr noundef %9, ptr noundef %10)
  call void @llvm.lifetime.end.p0(i64 8, ptr %5) #13
  ret void
}