; Function Attrs: nounwind uwtable
define internal void @section_write_packet(ptr noundef readonly captures(none) %0, ptr noundef %1) #0 {
  %3 = alloca i32, align 4
  %4 = getelementptr inbounds nuw i8, ptr %0, i64 24
  %5 = load ptr, ptr %4, align 8, !tbaa !222
  %6 = getelementptr inbounds nuw i8, ptr %5, i64 24
  %7 = load ptr, ptr %6, align 8, !tbaa !38
  %8 = getelementptr inbounds nuw i8, ptr %7, i64 216
  %9 = load i32, ptr %8, align 8, !tbaa !88
  %.not.i = icmp eq i32 %9, 0
  br i1 %.not.i, label %write_packet.exit, label %10

10:                                               ; preds = %2
  %11 = getelementptr inbounds nuw i8, ptr %7, i64 184
  %12 = load i64, ptr %11, align 8, !tbaa !185
  %13 = add nsw i64 %12, 11
  %14 = getelementptr inbounds nuw i8, ptr %7, i64 176
  %15 = load i32, ptr %14, align 8, !tbaa !156
  %16 = sext i32 %15 to i64
  %17 = tail call i64 @av_rescale(i64 noundef %13, i64 noundef 216000000, i64 noundef %16) #13
  %18 = getelementptr inbounds nuw i8, ptr %7, i64 152
  %19 = load i64, ptr %18, align 8, !tbaa !48
  %20 = add nsw i64 %19, %17
  call void @llvm.lifetime.start.p0(i64 4, ptr nonnull %3) #12
  %21 = srem i64 %20, 1073741823
  %22 = trunc nsw i64 %21 to i32
  %23 = tail call i32 @llvm.bswap.i32(i32 %22)
  store i32 %23, ptr %3, align 4, !tbaa !58
  %24 = getelementptr inbounds nuw i8, ptr %5, i64 32
  %25 = load ptr, ptr %24, align 8, !tbaa !66
  call void @avio_write(ptr noundef %25, ptr noundef nonnull %3, i32 noundef 4) #12
  call void @llvm.lifetime.end.p0(i64 4, ptr nonnull %3) #12
  br label %write_packet.exit

write_packet.exit:                                ; preds = %2, %10
  %26 = getelementptr inbounds nuw i8, ptr %5, i64 32
  %27 = load ptr, ptr %26, align 8, !tbaa !66
  call void @avio_write(ptr noundef %27, ptr noundef %1, i32 noundef 188) #12
  %28 = getelementptr inbounds nuw i8, ptr %7, i64 184
  %29 = load i64, ptr %28, align 8, !tbaa !185
  %30 = add nsw i64 %29, 188
  store i64 %30, ptr %28, align 8, !tbaa !185
  ret void
}